target datalayout = "e-m:e-p270:32:32-p271:32:32-p272:64:64-i64:64-i128:128-f80:128-n8:16:32:64-S128"
target triple = "x86_64-unknown-linux-gnu"

%"class.std::set.0" = type { %"class.std::_Rb_tree.1" }
%"class.std::_Rb_tree.1" = type { %"struct.std::_Rb_tree<QuantLib::Observer *, QuantLib::Observer *, std::_Identity<QuantLib::Observer *>, std::less<QuantLib::Observer *>>::_Rb_tree_impl" }
%"struct.std::_Rb_tree<QuantLib::Observer *, QuantLib::Observer *, std::_Identity<QuantLib::Observer *>, std::less<QuantLib::Observer *>>::_Rb_tree_impl" = type { [8 x i8], %"struct.std::_Rb_tree_header" }
%"struct.std::_Rb_tree_header" = type { %"struct.std::_Rb_tree_node_base", i64 }
%"struct.std::_Rb_tree_node_base" = type { i32, ptr, ptr, ptr }
%"class.QuantLib::Date" = type { i64 }
%"class.boost::detail::shared_count" = type { ptr }
%"class.std::set" = type { %"class.std::_Rb_tree" }
%"class.std::_Rb_tree" = type { %"struct.std::_Rb_tree<boost::shared_ptr<QuantLib::Observable>, boost::shared_ptr<QuantLib::Observable>, std::_Identity<boost::shared_ptr<QuantLib::Observable>>, std::less<boost::shared_ptr<QuantLib::Observable>>>::_Rb_tree_impl" }
%"struct.std::_Rb_tree<boost::shared_ptr<QuantLib::Observable>, boost::shared_ptr<QuantLib::Observable>, std::_Identity<boost::shared_ptr<QuantLib::Observable>>, std::less<boost::shared_ptr<QuantLib::Observable>>>::_Rb_tree_impl" = type { [8 x i8], %"struct.std::_Rb_tree_header" }
%"class.QuantLib::Observable" = type { ptr, %"class.std::set.0" }
%"class.QuantLib::Handle.57" = type { %"class.boost::shared_ptr.58" }
%"class.boost::shared_ptr.58" = type { ptr, %"class.boost::detail::shared_count" }
%"class.boost::shared_ptr.61" = type { ptr, %"class.boost::detail::shared_count" }
%"class.QuantLib::LognormalCmsSpreadPricer" = type { %"class.QuantLib::CmsSpreadCouponPricer.base", %"class.boost::shared_ptr.59", %"class.QuantLib::Handle", ptr, %"class.QuantLib::Date", %"class.QuantLib::Date", %"class.QuantLib::Date", double, double, double, double, double, %"class.boost::shared_ptr.60", %"class.boost::shared_ptr.61", %"class.boost::shared_ptr.62", double, double, double, double, double, double, double, double, double, double, double, i8, i32, double, double, double, double, double, double, double, double, double, double, double, double, double, double, i32, %"class.boost::shared_ptr.63", %"class.boost::shared_ptr.63", %"class.QuantLib::Observer", %"class.QuantLib::Observable" }
%"class.QuantLib::CmsSpreadCouponPricer.base" = type { %"class.QuantLib::FloatingRateCouponPricer.base", %"class.QuantLib::Handle.57" }
%"class.QuantLib::FloatingRateCouponPricer.base" = type { ptr }
%"class.boost::shared_ptr.59" = type { ptr, %"class.boost::detail::shared_count" }
%"class.QuantLib::Handle" = type { %"class.boost::shared_ptr.51" }
%"class.boost::shared_ptr.51" = type { ptr, %"class.boost::detail::shared_count" }
%"class.boost::shared_ptr.60" = type { ptr, %"class.boost::detail::shared_count" }
%"class.boost::shared_ptr.62" = type { ptr, %"class.boost::detail::shared_count" }
%"class.boost::shared_ptr.63" = type { ptr, %"class.boost::detail::shared_count" }
%"class.QuantLib::Observer" = type { ptr, %"class.std::set" }

; Function Attrs: mustprogress uwtable
define noundef double @_ZNK8QuantLib24LognormalCmsSpreadPricer12swapletPriceEv(ptr noundef nonnull align 8 dereferenceable(424) %this) unnamed_addr #2 align 2 {
entry:
  %this.addr = alloca ptr, align 8
  store ptr %this, ptr %this.addr, align 8, !tbaa !3
  %this1 = load ptr, ptr %this.addr, align 8
  %gearing_ = getelementptr inbounds nuw %"class.QuantLib::LognormalCmsSpreadPricer", ptr %this1, i32 0, i32 8
  %0 = load double, ptr %gearing_, align 8, !tbaa !72
  %coupon_ = getelementptr inbounds nuw %"class.QuantLib::LognormalCmsSpreadPricer", ptr %this1, i32 0, i32 3
  %1 = load ptr, ptr %coupon_, align 8, !tbaa !71
  %call = call noundef double @_ZNK8QuantLib6Coupon13accrualPeriodEv(ptr noundef nonnull align 8 dereferenceable(88) %1)
  %mul = fmul double %0, %call
  %discount_ = getelementptr inbounds nuw %"class.QuantLib::LognormalCmsSpreadPricer", ptr %this1, i32 0, i32 11
  %2 = load double, ptr %discount_, align 8, !tbaa !75
  %mul2 = fmul double %mul, %2
  %gearing1_ = getelementptr inbounds nuw %"class.QuantLib::LognormalCmsSpreadPricer", ptr %this1, i32 0, i32 17
  %3 = load double, ptr %gearing1_, align 8, !tbaa !63
  %adjustedRate1_ = getelementptr inbounds nuw %"class.QuantLib::LognormalCmsSpreadPricer", ptr %this1, i32 0, i32 19
  %4 = load double, ptr %adjustedRate1_, align 8, !tbaa !64
  %gearing2_ = getelementptr inbounds nuw %"class.QuantLib::LognormalCmsSpreadPricer", ptr %this1, i32 0, i32 18
  %5 = load double, ptr %gearing2_, align 8, !tbaa !65
  %adjustedRate2_ = getelementptr inbounds nuw %"class.QuantLib::LognormalCmsSpreadPricer", ptr %this1, i32 0, i32 20
  %6 = load double, ptr %adjustedRate2_, align 8, !tbaa !66
  %mul4 = fmul double %5, %6
  %7 = call double @llvm.fmuladd.f64(double %3, double %4, double %mul4)
  %spreadLegValue_ = getelementptr inbounds nuw %"class.QuantLib::LognormalCmsSpreadPricer", ptr %this1, i32 0, i32 10
  %8 = load double, ptr %spreadLegValue_, align 8, !tbaa !76
  %9 = call double @llvm.fmuladd.f64(double %mul2, double %7, double %8)
  ret double %9
}