; Function Attrs: mustprogress uwtable
define noundef double @_ZNK8QuantLib24LognormalCmsSpreadPricer12swapletPriceEv(ptr nocapture noundef nonnull readonly align 8 dereferenceable(424) %this) unnamed_addr #7 align 2 {
entry:
  %gearing_ = getelementptr inbounds nuw i8, ptr %this, i64 96
  %0 = load double, ptr %gearing_, align 8, !tbaa !147
  %coupon_ = getelementptr inbounds nuw i8, ptr %this, i64 56
  %1 = load ptr, ptr %coupon_, align 8, !tbaa !135
  %call = tail call noundef double @_ZNK8QuantLib6Coupon13accrualPeriodEv(ptr noundef nonnull align 8 dereferenceable(88) %1)
  %mul = fmul double %0, %call
  %discount_ = getelementptr inbounds nuw i8, ptr %this, i64 120
  %2 = load double, ptr %discount_, align 8, !tbaa !182
  %mul2 = fmul double %mul, %2
  %gearing1_ = getelementptr inbounds nuw i8, ptr %this, i64 192
  %3 = load double, ptr %gearing1_, align 8, !tbaa !127
  %adjustedRate1_ = getelementptr inbounds nuw i8, ptr %this, i64 208
  %4 = load double, ptr %adjustedRate1_, align 8, !tbaa !128
  %gearing2_ = getelementptr inbounds nuw i8, ptr %this, i64 200
  %5 = load double, ptr %gearing2_, align 8, !tbaa !129
  %adjustedRate2_ = getelementptr inbounds nuw i8, ptr %this, i64 216
  %6 = load double, ptr %adjustedRate2_, align 8, !tbaa !130
  %mul4 = fmul double %5, %6
  %7 = tail call double @llvm.fmuladd.f64(double %3, double %4, double %mul4)
  %spreadLegValue_ = getelementptr inbounds nuw i8, ptr %this, i64 112
  %8 = load double, ptr %spreadLegValue_, align 8, !tbaa !183
  %9 = tail call double @llvm.fmuladd.f64(double %mul2, double %7, double %8)
  ret double %9
}